target datalayout = "e-m:e-p270:32:32-p271:32:32-p272:64:64-i64:64-i128:128-f80:128-n8:16:32:64-S128"
target triple = "x86_64-pc-linux-gnu"

; Function Attrs: nounwind uwtable
define internal ptr @Abc_ObjNot(ptr noundef %0) #0 {
  %2 = alloca ptr, align 8
  store ptr %0, ptr %2, align 8
  %3 = load ptr, ptr %2, align 8
  %4 = ptrtoint ptr %3 to i64
  %5 = xor i64 %4, 1
  %6 = inttoptr i64 %5 to ptr
  ret ptr %6
}

; Function Attrs: nounwind uwtable
define ptr @Abc_AigXorLookup(ptr noundef %0, ptr noundef %1, ptr noundef %2, ptr noundef %3) #0 {
  %5 = alloca ptr, align 8
  %6 = alloca ptr, align 8
  %7 = alloca ptr, align 8
  %8 = alloca ptr, align 8
  %9 = alloca ptr, align 8
  %10 = alloca ptr, align 8
  %11 = alloca ptr, align 8
  %12 = alloca ptr, align 8
  store ptr %0, ptr %6, align 8
  store ptr %1, ptr %7, align 8
  store ptr %2, ptr %8, align 8
  store ptr %3, ptr %9, align 8
  %13 = load ptr, ptr %9, align 8
  %14 = icmp ne ptr %13, null
  br i1 %14, label %15, label %17

15:                                               ; preds = %4
  %16 = load ptr, ptr %9, align 8
  store i32 0, ptr %16, align 4
  br label %17

17:                                               ; preds = %15, %4
  %18 = load ptr, ptr %6, align 8
  %19 = load ptr, ptr %7, align 8
  %20 = call ptr @Abc_ObjNot(ptr noundef %19)
  %21 = load ptr, ptr %8, align 8
  %22 = call ptr @Abc_ObjNot(ptr noundef %21)
  %23 = call ptr @Abc_AigAndLookup(ptr noundef %18, ptr noundef %20, ptr noundef %22)
  store ptr %23, ptr %10, align 8
  %24 = icmp ne ptr %23, null
  br i1 %24, label %25, label %47

25:                                               ; preds = %17
  %26 = load ptr, ptr %6, align 8
  %27 = load ptr, ptr %7, align 8
  %28 = load ptr, ptr %8, align 8
  %29 = call ptr @Abc_AigAndLookup(ptr noundef %26, ptr noundef %27, ptr noundef %28)
  store ptr %29, ptr %11, align 8
  %30 = icmp ne ptr %29, null
  br i1 %30, label %31, label %47

31:                                               ; preds = %25
  %32 = load ptr, ptr %6, align 8
  %33 = load ptr, ptr %10, align 8
  %34 = call ptr @Abc_ObjNot(ptr noundef %33)
  %35 = load ptr, ptr %11, align 8
  %36 = call ptr @Abc_ObjNot(ptr noundef %35)
  %37 = call ptr @Abc_AigAndLookup(ptr noundef %32, ptr noundef %34, ptr noundef %36)
  store ptr %37, ptr %12, align 8
  %38 = load ptr, ptr %12, align 8
  %39 = icmp ne ptr %38, null
  br i1 %39, label %40, label %45

40:                                               ; preds = %31
  %41 = load ptr, ptr %9, align 8
  %42 = icmp ne ptr %41, null
  br i1 %42, label %43, label %45

43:                                               ; preds = %40
  %44 = load ptr, ptr %9, align 8
  store i32 1, ptr %44, align 4
  br label %45

45:                                               ; preds = %43, %40, %31
  %46 = load ptr, ptr %12, align 8
  store ptr %46, ptr %5, align 8
  br label %77

47:                                               ; preds = %25, %17
  %48 = load ptr, ptr %6, align 8
  %49 = load ptr, ptr %7, align 8
  %50 = load ptr, ptr %8, align 8
  %51 = call ptr @Abc_ObjNot(ptr noundef %50)
  %52 = call ptr @Abc_AigAndLookup(ptr noundef %48, ptr noundef %49, ptr noundef %51)
  store ptr %52, ptr %10, align 8
  %53 = icmp ne ptr %52, null
  br i1 %53, label %54, label %76

54:                                               ; preds = %47
  %55 = load ptr, ptr %6, align 8
  %56 = load ptr, ptr %7, align 8
  %57 = call ptr @Abc_ObjNot(ptr noundef %56)
  %58 = load ptr, ptr %8, align 8
  %59 = call ptr @Abc_AigAndLookup(ptr noundef %55, ptr noundef %57, ptr noundef %58)
  store ptr %59, ptr %11, align 8
  %60 = icmp ne ptr %59, null
  br i1 %60, label %61, label %76

61:                                               ; preds = %54
  %62 = load ptr, ptr %6, align 8
  %63 = load ptr, ptr %10, align 8
  %64 = call ptr @Abc_ObjNot(ptr noundef %63)
  %65 = load ptr, ptr %11, align 8
  %66 = call ptr @Abc_ObjNot(ptr noundef %65)
  %67 = call ptr @Abc_AigAndLookup(ptr noundef %62, ptr noundef %64, ptr noundef %66)
  store ptr %67, ptr %12, align 8
  %68 = load ptr, ptr %12, align 8
  %69 = icmp ne ptr %68, null
  br i1 %69, label %70, label %73

70:                                               ; preds = %61
  %71 = load ptr, ptr %12, align 8
  %72 = call ptr @Abc_ObjNot(ptr noundef %71)
  br label %74

73:                                               ; preds = %61
  br label %74

74:                                               ; preds = %73, %70
  %75 = phi ptr [ %72, %70 ], [ null, %73 ]
  store ptr %75, ptr %5, align 8
  br label %77

76:                                               ; preds = %54, %47
  store ptr null, ptr %5, align 8
  br label %77

77:                                               ; preds = %76, %74, %45
  %78 = load ptr, ptr %5, align 8
  ret ptr %78
}