; Function Attrs: nofree norecurse nosync nounwind memory(read, argmem: readwrite, inaccessiblemem: none) uwtable
define ptr @Abc_AigXorLookup(ptr noundef readonly captures(none) %0, ptr noundef %1, ptr noundef %2, ptr noundef writeonly %3) local_unnamed_addr #8 {
  %5 = icmp ne ptr %3, null
  br i1 %5, label %6, label %7

6:                                                ; preds = %4
  store i32 0, ptr %3, align 4
  br label %7

7:                                                ; preds = %6, %4
  %8 = ptrtoint ptr %1 to i64
  %9 = xor i64 %8, 1
  %10 = inttoptr i64 %9 to ptr
  %11 = ptrtoint ptr %2 to i64
  %12 = xor i64 %11, 1
  %13 = inttoptr i64 %12 to ptr
  %14 = tail call ptr @Abc_AigAndLookup(ptr noundef %0, ptr noundef %10, ptr noundef %13)
  %.not = icmp eq ptr %14, null
  br i1 %.not, label %27, label %15

15:                                               ; preds = %7
  %16 = tail call ptr @Abc_AigAndLookup(ptr noundef %0, ptr noundef %1, ptr noundef %2)
  %.not34 = icmp eq ptr %16, null
  br i1 %.not34, label %27, label %17

17:                                               ; preds = %15
  %18 = ptrtoint ptr %14 to i64
  %19 = xor i64 %18, 1
  %20 = inttoptr i64 %19 to ptr
  %21 = ptrtoint ptr %16 to i64
  %22 = xor i64 %21, 1
  %23 = inttoptr i64 %22 to ptr
  %24 = tail call ptr @Abc_AigAndLookup(ptr noundef %0, ptr noundef %20, ptr noundef %23)
  %25 = icmp ne ptr %24, null
  %or.cond = and i1 %5, %25
  br i1 %or.cond, label %26, label %43

26:                                               ; preds = %17
  store i32 1, ptr %3, align 4
  br label %43

27:                                               ; preds = %15, %7
  %28 = tail call ptr @Abc_AigAndLookup(ptr noundef %0, ptr noundef %1, ptr noundef %13)
  %.not35 = icmp eq ptr %28, null
  br i1 %.not35, label %43, label %29

29:                                               ; preds = %27
  %30 = tail call ptr @Abc_AigAndLookup(ptr noundef %0, ptr noundef %10, ptr noundef %2)
  %.not36 = icmp eq ptr %30, null
  br i1 %.not36, label %43, label %31

31:                                               ; preds = %29
  %32 = ptrtoint ptr %28 to i64
  %33 = xor i64 %32, 1
  %34 = inttoptr i64 %33 to ptr
  %35 = ptrtoint ptr %30 to i64
  %36 = xor i64 %35, 1
  %37 = inttoptr i64 %36 to ptr
  %38 = tail call ptr @Abc_AigAndLookup(ptr noundef %0, ptr noundef %34, ptr noundef %37)
  %.not37 = icmp eq ptr %38, null
  br i1 %.not37, label %43, label %39

39:                                               ; preds = %31
  %40 = ptrtoint ptr %38 to i64
  %41 = xor i64 %40, 1
  %42 = inttoptr i64 %41 to ptr
  br label %43

43:                                               ; preds = %27, %29, %39, %31, %17, %26
  %.0 = phi ptr [ %24, %26 ], [ %24, %17 ], [ %42, %39 ], [ null, %31 ], [ null, %29 ], [ null, %27 ]
  ret ptr %.0
}